target datalayout = "e-m:e-p270:32:32-p271:32:32-p272:64:64-i64:64-i128:128-f80:128-n8:16:32:64-S128"
target triple = "x86_64-pc-linux-gnu"

%struct.H5T_t = type { %struct.H5O_shared_t, ptr, %struct.H5O_loc_t, %struct.H5G_name_t, ptr }
%struct.H5O_shared_t = type { i32, ptr, i32, %union.anon }
%union.anon = type { %struct.H5O_mesg_loc_t }
%struct.H5O_mesg_loc_t = type { i32, i64 }
%struct.H5O_loc_t = type { ptr, i64, i8 }
%struct.H5G_name_t = type { ptr, ptr, i32 }
%struct.H5T_shared_t = type { i64, i32, i32, i64, i32, i8, ptr, ptr, %union.anon.0 }
%union.anon.0 = type { %struct.H5T_array_t }
%struct.H5T_array_t = type { i64, i32, [32 x i64] }
%struct.H5T_compnd_t = type { i32, i32, i32, i8, ptr, i64 }
%struct.H5T_cmemb_t = type { ptr, i64, i64, ptr }

@.str = private unnamed_addr constant [105 x i8] c"generated/home/dtcxzyw/WorkSpace/Projects/compilers/llvm-opt-benchmark/bench/hdf5/hdf5/src/H5Tcompound.c\00", align 1
@H5E_DATATYPE_g = external global i64, align 8
@__func__.H5T_get_member_type = private unnamed_addr constant [20 x i8] c"H5T_get_member_type\00", align 1
@H5E_CANTCOPY_g = external global i64, align 8
@.str.8 = private unnamed_addr constant [31 x i8] c"unable to copy member datatype\00", align 1

; Function Attrs: nounwind uwtable
define ptr @H5T_get_member_type(ptr noundef %0, i32 noundef %1) #0 {
  %3 = alloca ptr, align 8
  %4 = alloca i32, align 4
  %5 = alloca ptr, align 8
  %6 = alloca i8, align 1
  store ptr %0, ptr %3, align 8
  store i32 %1, ptr %4, align 4
  store ptr null, ptr %5, align 8
  store i8 0, ptr %6, align 1
  %7 = load ptr, ptr %3, align 8
  %8 = getelementptr inbounds %struct.H5T_t, ptr %7, i32 0, i32 1
  %9 = load ptr, ptr %8, align 8
  %10 = getelementptr inbounds %struct.H5T_shared_t, ptr %9, i32 0, i32 8
  %11 = getelementptr inbounds %struct.H5T_compnd_t, ptr %10, i32 0, i32 4
  %12 = load ptr, ptr %11, align 8
  %13 = load i32, ptr %4, align 4
  %14 = zext i32 %13 to i64
  %15 = getelementptr inbounds %struct.H5T_cmemb_t, ptr %12, i64 %14
  %16 = getelementptr inbounds %struct.H5T_cmemb_t, ptr %15, i32 0, i32 3
  %17 = load ptr, ptr %16, align 8
  %18 = call ptr @H5T_copy(ptr noundef %17, i32 noundef 0)
  store ptr %18, ptr %5, align 8
  %19 = icmp eq ptr null, %18
  br i1 %19, label %20, label %35

20:                                               ; preds = %2
  br label %21

21:                                               ; preds = %20
  br label %22

22:                                               ; preds = %21
  br label %23

23:                                               ; preds = %22
  %24 = load i64, ptr @H5E_DATATYPE_g, align 8
  %25 = load i64, ptr @H5E_CANTCOPY_g, align 8
  %26 = call i32 (ptr, ptr, i32, i64, i64, ptr, ...) @H5E_printf_stack(ptr noundef @.str, ptr noundef @__func__.H5T_get_member_type, i32 noundef 237, i64 noundef %24, i64 noundef %25, ptr noundef @.str.8)
  br label %27

27:                                               ; preds = %23
  store i8 1, ptr %6, align 1
  %28 = load i8, ptr %6, align 1
  %29 = trunc i8 %28 to i1
  %30 = zext i1 %29 to i8
  store i8 %30, ptr %6, align 1
  br label %31

31:                                               ; preds = %27
  br label %32

32:                                               ; preds = %31
  store ptr null, ptr %5, align 8
  br label %36

33:                                               ; No predecessors!
  br label %34

34:                                               ; preds = %33
  br label %35

35:                                               ; preds = %34, %2
  br label %36

36:                                               ; preds = %35, %32
  %37 = load ptr, ptr %5, align 8
  ret ptr %37
}