; Function Attrs: nounwind uwtable
define ptr @H5T_get_member_type(ptr nocapture noundef readonly %0, i32 noundef %1) local_unnamed_addr #0 {
  %3 = getelementptr inbounds i8, ptr %0, i64 40
  %4 = load ptr, ptr %3, align 8
  %5 = getelementptr inbounds i8, ptr %4, i64 64
  %6 = load ptr, ptr %5, align 8
  %7 = zext i32 %1 to i64
  %8 = getelementptr inbounds %struct.H5T_cmemb_t, ptr %6, i64 %7, i32 3
  %9 = load ptr, ptr %8, align 8
  %10 = tail call ptr @H5T_copy(ptr noundef %9, i32 noundef 0) #6
  %11 = icmp eq ptr %10, null
  br i1 %11, label %12, label %16

12:                                               ; preds = %2
  %13 = load i64, ptr @H5E_DATATYPE_g, align 8
  %14 = load i64, ptr @H5E_CANTCOPY_g, align 8
  %15 = tail call i32 (ptr, ptr, i32, i64, i64, ptr, ...) @H5E_printf_stack(ptr noundef nonnull @.str, ptr noundef nonnull @__func__.H5T_get_member_type, i32 noundef 237, i64 noundef %13, i64 noundef %14, ptr noundef nonnull @.str.8) #6
  br label %16

16:                                               ; preds = %2, %12
  ret ptr %10
}